; Function Attrs: mustprogress uwtable
define hidden void @_Z10hsv_to_rgbN2cv7Scalar_IdEE(ptr dead_on_unwind noalias nocapture writable writeonly sret(%"class.cv::Scalar_") align 8 %0, ptr nocapture noundef readonly %1) local_unnamed_addr #3 personality ptr @__gxx_personality_v0 {
  %3 = alloca %"class.cv::Mat", align 8
  %4 = alloca %"class.cv::Mat", align 8
  %5 = alloca %"class.cv::_InputArray", align 8
  %6 = alloca %"class.cv::_OutputArray", align 8
  call void @_ZN2cv3MatC1Eiii(ptr noundef nonnull align 8 dereferenceable(96) %3, i32 noundef 1, i32 noundef 1, i32 noundef 21)
  invoke void @_ZN2cv3MatC1Eiii(ptr noundef nonnull align 8 dereferenceable(96) %4, i32 noundef 1, i32 noundef 1, i32 noundef 21)
          to label %7 unwind label %37

7:                                                ; preds = %2
  %8 = getelementptr inbounds i8, ptr %3, i64 16
  %9 = load ptr, ptr %8, align 8
  %10 = load double, ptr %1, align 8
  %11 = fptrunc double %10 to float
  %12 = fmul float %11, 3.600000e+02
  store float %12, ptr %9, align 4
  %13 = getelementptr inbounds i8, ptr %1, i64 8
  %14 = load double, ptr %13, align 8
  %15 = fptrunc double %14 to float
  %16 = getelementptr inbounds i8, ptr %9, i64 4
  store float %15, ptr %16, align 4
  %17 = getelementptr inbounds i8, ptr %1, i64 16
  %18 = load double, ptr %17, align 8
  %19 = fptrunc double %18 to float
  %20 = getelementptr inbounds i8, ptr %9, i64 8
  store float %19, ptr %20, align 4
  %21 = getelementptr inbounds i8, ptr %5, i64 16
  store i32 0, ptr %21, align 8
  %22 = getelementptr inbounds i8, ptr %5, i64 20
  store i32 0, ptr %22, align 4
  store i32 16842752, ptr %5, align 8
  %23 = getelementptr inbounds i8, ptr %5, i64 8
  store ptr %3, ptr %23, align 8
  %24 = getelementptr inbounds i8, ptr %6, i64 8
  %25 = getelementptr inbounds i8, ptr %6, i64 16
  store i64 0, ptr %25, align 8
  store i32 33619968, ptr %6, align 8
  store ptr %4, ptr %24, align 8
  invoke void @_ZN2cv8cvtColorERKNS_11_InputArrayERKNS_12_OutputArrayEii(ptr noundef nonnull align 8 dereferenceable(24) %5, ptr noundef nonnull align 8 dereferenceable(24) %6, i32 noundef 55, i32 noundef 0)
          to label %_ZN2cv3VecIfLi3EEC2ERKS1_.exit unwind label %39

_ZN2cv3VecIfLi3EEC2ERKS1_.exit:                   ; preds = %7
  %26 = getelementptr inbounds i8, ptr %0, i64 24
  store i64 0, ptr %26, align 8
  %27 = getelementptr inbounds i8, ptr %4, i64 16
  %28 = load ptr, ptr %27, align 8
  %.sroa.3.0..sroa_idx = getelementptr inbounds i8, ptr %28, i64 8
  %.sroa.3.0.copyload = load float, ptr %.sroa.3.0..sroa_idx, align 4
  %29 = load <2 x float>, ptr %28, align 4
  %30 = fmul <2 x float> %29, <float 2.550000e+02, float 2.550000e+02>
  %31 = fptosi <2 x float> %30 to <2 x i32>
  %32 = sitofp <2 x i32> %31 to <2 x double>
  store <2 x double> %32, ptr %0, align 8
  %33 = fmul float %.sroa.3.0.copyload, 2.550000e+02
  %34 = fptosi float %33 to i32
  %35 = sitofp i32 %34 to double
  %36 = getelementptr inbounds i8, ptr %0, i64 16
  store double %35, ptr %36, align 8
  call void @_ZN2cv3MatD1Ev(ptr noundef nonnull align 8 dereferenceable(96) %4) #13
  call void @_ZN2cv3MatD1Ev(ptr noundef nonnull align 8 dereferenceable(96) %3) #13
  ret void

37:                                               ; preds = %2
  %38 = landingpad { ptr, i32 }
          cleanup
  br label %41

39:                                               ; preds = %7
  %40 = landingpad { ptr, i32 }
          cleanup
  call void @_ZN2cv3MatD1Ev(ptr noundef nonnull align 8 dereferenceable(96) %4) #13
  br label %41

41:                                               ; preds = %39, %37
  %.pn8.pn = phi { ptr, i32 } [ %40, %39 ], [ %38, %37 ]
  call void @_ZN2cv3MatD1Ev(ptr noundef nonnull align 8 dereferenceable(96) %3) #13
  resume { ptr, i32 } %.pn8.pn
}